target datalayout = "e-m:e-p270:32:32-p271:32:32-p272:64:64-i64:64-i128:128-f80:128-n8:16:32:64-S128"
target triple = "x86_64-pc-linux-gnu"

%struct.PJconsts = type { ptr, ptr, ptr, ptr, ptr, ptr, ptr, ptr, ptr, ptr, ptr, ptr, i32, ptr, ptr, ptr, ptr, ptr, ptr, ptr, ptr, double, double, double, double, double, double, double, double, double, double, double, double, double, double, double, double, double, double, double, double, double, double, i32, i32, i32, i32, i32, i32, i32, i32, i32, i32, i32, ptr, ptr, ptr, ptr, ptr, ptr, double, double, double, double, double, double, double, double, double, double, double, i32, [7 x double], i32, ptr, ptr, double, double, i32, [4 x i8], %"class.std::shared_ptr", i8, double, i8, %"class.std::__cxx11::basic_string", %"class.std::__cxx11::basic_string", %"class.std::__cxx11::basic_string", i8, %"class.std::vector", i32, %"class.std::vector.3", i32, i8, i8, i8, ptr }
%"class.std::shared_ptr" = type { %"class.std::__shared_ptr" }
%"class.std::__shared_ptr" = type { ptr, %"class.std::__shared_count" }
%"class.std::__shared_count" = type { ptr }
%"class.std::__cxx11::basic_string" = type { %"struct.std::__cxx11::basic_string<char>::_Alloc_hider", i64, %union.anon }
%"struct.std::__cxx11::basic_string<char>::_Alloc_hider" = type { ptr }
%union.anon = type { i64, [8 x i8] }
%"class.std::vector" = type { %"struct.std::_Vector_base" }
%"struct.std::_Vector_base" = type { %"struct.std::_Vector_base<osgeo::proj::operation::GridDescription, std::allocator<osgeo::proj::operation::GridDescription>>::_Vector_impl" }
%"struct.std::_Vector_base<osgeo::proj::operation::GridDescription, std::allocator<osgeo::proj::operation::GridDescription>>::_Vector_impl" = type { %"struct.std::_Vector_base<osgeo::proj::operation::GridDescription, std::allocator<osgeo::proj::operation::GridDescription>>::_Vector_impl_data" }
%"struct.std::_Vector_base<osgeo::proj::operation::GridDescription, std::allocator<osgeo::proj::operation::GridDescription>>::_Vector_impl_data" = type { ptr, ptr, ptr }
%"class.std::vector.3" = type { %"struct.std::_Vector_base.4" }
%"struct.std::_Vector_base.4" = type { %"struct.std::_Vector_base<PJCoordOperation, std::allocator<PJCoordOperation>>::_Vector_impl" }
%"struct.std::_Vector_base<PJCoordOperation, std::allocator<PJCoordOperation>>::_Vector_impl" = type { %"struct.std::_Vector_base<PJCoordOperation, std::allocator<PJCoordOperation>>::_Vector_impl_data" }
%"struct.std::_Vector_base<PJCoordOperation, std::allocator<PJCoordOperation>>::_Vector_impl_data" = type { ptr, ptr, ptr }
%"struct.(anonymous namespace)::pj_somerc" = type { double, double, double, double, double, double }
%struct.PJ_LP = type { double, double }
%struct.PJ_XY = type { double, double }

; Function Attrs: mustprogress uwtable
define internal { double, double } @_ZL16somerc_e_forward5PJ_LPP8PJconsts(double %0, double %1, ptr noundef %2) #0 {
  %4 = alloca %struct.PJ_XY, align 8
  %5 = alloca %struct.PJ_LP, align 8
  %6 = alloca ptr, align 8
  %7 = alloca double, align 8
  %8 = alloca double, align 8
  %9 = alloca double, align 8
  %10 = alloca double, align 8
  %11 = alloca double, align 8
  %12 = alloca double, align 8
  %13 = alloca ptr, align 8
  %14 = getelementptr inbounds nuw { double, double }, ptr %5, i32 0, i32 0
  store double %0, ptr %14, align 8
  %15 = getelementptr inbounds nuw { double, double }, ptr %5, i32 0, i32 1
  store double %1, ptr %15, align 8
  store ptr %2, ptr %6, align 8, !tbaa !3
  call void @llvm.memset.p0.i64(ptr align 8 %4, i8 0, i64 16, i1 false)
  call void @llvm.lifetime.start.p0(i64 8, ptr %7) #7
  call void @llvm.lifetime.start.p0(i64 8, ptr %8) #7
  call void @llvm.lifetime.start.p0(i64 8, ptr %9) #7
  call void @llvm.lifetime.start.p0(i64 8, ptr %10) #7
  call void @llvm.lifetime.start.p0(i64 8, ptr %11) #7
  call void @llvm.lifetime.start.p0(i64 8, ptr %12) #7
  call void @llvm.lifetime.start.p0(i64 8, ptr %13) #7
  %16 = load ptr, ptr %6, align 8, !tbaa !3
  %17 = getelementptr inbounds nuw %struct.PJconsts, ptr %16, i32 0, i32 11
  %18 = load ptr, ptr %17, align 8, !tbaa !43
  store ptr %18, ptr %13, align 8, !tbaa !41
  %19 = load ptr, ptr %6, align 8, !tbaa !3
  %20 = getelementptr inbounds nuw %struct.PJconsts, ptr %19, i32 0, i32 26
  %21 = load double, ptr %20, align 8, !tbaa !44
  %22 = getelementptr inbounds nuw %struct.PJ_LP, ptr %5, i32 0, i32 1
  %23 = load double, ptr %22, align 8, !tbaa !67
  %24 = call double @sin(double noundef %23) #7, !tbaa !48
  %25 = fmul double %21, %24
  store double %25, ptr %11, align 8, !tbaa !49
  %26 = load ptr, ptr %13, align 8, !tbaa !41
  %27 = getelementptr inbounds nuw %"struct.(anonymous namespace)::pj_somerc", ptr %26, i32 0, i32 1
  %28 = load double, ptr %27, align 8, !tbaa !52
  %29 = getelementptr inbounds nuw %struct.PJ_LP, ptr %5, i32 0, i32 1
  %30 = load double, ptr %29, align 8, !tbaa !67
  %31 = call double @llvm.fmuladd.f64(double 5.000000e-01, double %30, double 0x3FE921FB54442D18)
  %32 = call double @tan(double noundef %31) #7, !tbaa !48
  %33 = call double @log(double noundef %32) #7, !tbaa !48
  %34 = load ptr, ptr %13, align 8, !tbaa !41
  %35 = getelementptr inbounds nuw %"struct.(anonymous namespace)::pj_somerc", ptr %34, i32 0, i32 2
  %36 = load double, ptr %35, align 8, !tbaa !45
  %37 = load double, ptr %11, align 8, !tbaa !49
  %38 = fadd double 1.000000e+00, %37
  %39 = load double, ptr %11, align 8, !tbaa !49
  %40 = fsub double 1.000000e+00, %39
  %41 = fdiv double %38, %40
  %42 = call double @log(double noundef %41) #7, !tbaa !48
  %43 = fneg double %36
  %44 = call double @llvm.fmuladd.f64(double %43, double %42, double %33)
  %45 = load ptr, ptr %13, align 8, !tbaa !41
  %46 = getelementptr inbounds nuw %"struct.(anonymous namespace)::pj_somerc", ptr %45, i32 0, i32 0
  %47 = load double, ptr %46, align 8, !tbaa !56
  %48 = call double @llvm.fmuladd.f64(double %28, double %44, double %47)
  %49 = call double @exp(double noundef %48) #7, !tbaa !48
  %50 = call double @atan(double noundef %49) #7, !tbaa !48
  %51 = call double @llvm.fmuladd.f64(double 2.000000e+00, double %50, double 0xBFF921FB54442D18)
  store double %51, ptr %7, align 8, !tbaa !49
  %52 = load ptr, ptr %13, align 8, !tbaa !41
  %53 = getelementptr inbounds nuw %"struct.(anonymous namespace)::pj_somerc", ptr %52, i32 0, i32 1
  %54 = load double, ptr %53, align 8, !tbaa !52
  %55 = getelementptr inbounds nuw %struct.PJ_LP, ptr %5, i32 0, i32 0
  %56 = load double, ptr %55, align 8, !tbaa !69
  %57 = fmul double %54, %56
  store double %57, ptr %8, align 8, !tbaa !49
  %58 = load double, ptr %7, align 8, !tbaa !49
  %59 = call double @cos(double noundef %58) #7, !tbaa !48
  store double %59, ptr %12, align 8, !tbaa !49
  %60 = load ptr, ptr %6, align 8, !tbaa !3
  %61 = getelementptr inbounds nuw %struct.PJconsts, ptr %60, i32 0, i32 0
  %62 = load ptr, ptr %61, align 8, !tbaa !54
  %63 = load ptr, ptr %13, align 8, !tbaa !41
  %64 = getelementptr inbounds nuw %"struct.(anonymous namespace)::pj_somerc", ptr %63, i32 0, i32 4
  %65 = load double, ptr %64, align 8, !tbaa !55
  %66 = load double, ptr %7, align 8, !tbaa !49
  %67 = call double @sin(double noundef %66) #7, !tbaa !48
  %68 = load ptr, ptr %13, align 8, !tbaa !41
  %69 = getelementptr inbounds nuw %"struct.(anonymous namespace)::pj_somerc", ptr %68, i32 0, i32 5
  %70 = load double, ptr %69, align 8, !tbaa !53
  %71 = load double, ptr %12, align 8, !tbaa !49
  %72 = fmul double %70, %71
  %73 = load double, ptr %8, align 8, !tbaa !49
  %74 = call double @cos(double noundef %73) #7, !tbaa !48
  %75 = fmul double %72, %74
  %76 = fneg double %75
  %77 = call double @llvm.fmuladd.f64(double %65, double %67, double %76)
  %78 = call noundef double @_Z5aasinP6pj_ctxd(ptr noundef %62, double noundef %77)
  store double %78, ptr %9, align 8, !tbaa !49
  %79 = load ptr, ptr %6, align 8, !tbaa !3
  %80 = getelementptr inbounds nuw %struct.PJconsts, ptr %79, i32 0, i32 0
  %81 = load ptr, ptr %80, align 8, !tbaa !54
  %82 = load double, ptr %12, align 8, !tbaa !49
  %83 = load double, ptr %8, align 8, !tbaa !49
  %84 = call double @sin(double noundef %83) #7, !tbaa !48
  %85 = fmul double %82, %84
  %86 = load double, ptr %9, align 8, !tbaa !49
  %87 = call double @cos(double noundef %86) #7, !tbaa !48
  %88 = fdiv double %85, %87
  %89 = call noundef double @_Z5aasinP6pj_ctxd(ptr noundef %81, double noundef %88)
  store double %89, ptr %10, align 8, !tbaa !49
  %90 = load ptr, ptr %13, align 8, !tbaa !41
  %91 = getelementptr inbounds nuw %"struct.(anonymous namespace)::pj_somerc", ptr %90, i32 0, i32 3
  %92 = load double, ptr %91, align 8, !tbaa !59
  %93 = load double, ptr %10, align 8, !tbaa !49
  %94 = fmul double %92, %93
  %95 = getelementptr inbounds nuw %struct.PJ_XY, ptr %4, i32 0, i32 0
  store double %94, ptr %95, align 8, !tbaa !64
  %96 = load ptr, ptr %13, align 8, !tbaa !41
  %97 = getelementptr inbounds nuw %"struct.(anonymous namespace)::pj_somerc", ptr %96, i32 0, i32 3
  %98 = load double, ptr %97, align 8, !tbaa !59
  %99 = load double, ptr %9, align 8, !tbaa !49
  %100 = call double @llvm.fmuladd.f64(double 5.000000e-01, double %99, double 0x3FE921FB54442D18)
  %101 = call double @tan(double noundef %100) #7, !tbaa !48
  %102 = call double @log(double noundef %101) #7, !tbaa !48
  %103 = fmul double %98, %102
  %104 = getelementptr inbounds nuw %struct.PJ_XY, ptr %4, i32 0, i32 1
  store double %103, ptr %104, align 8, !tbaa !62
  call void @llvm.lifetime.end.p0(i64 8, ptr %13) #7
  call void @llvm.lifetime.end.p0(i64 8, ptr %12) #7
  call void @llvm.lifetime.end.p0(i64 8, ptr %11) #7
  call void @llvm.lifetime.end.p0(i64 8, ptr %10) #7
  call void @llvm.lifetime.end.p0(i64 8, ptr %9) #7
  call void @llvm.lifetime.end.p0(i64 8, ptr %8) #7
  call void @llvm.lifetime.end.p0(i64 8, ptr %7) #7
  %105 = load { double, double }, ptr %4, align 8
  ret { double, double } %105
}