; Function Attrs: mustprogress uwtable
define internal { double, double } @_ZL16somerc_e_forward5PJ_LPP8PJconsts(double %0, double %1, ptr noundef readonly captures(none) %2) #0 {
  %4 = getelementptr inbounds nuw i8, ptr %2, i64 88
  %5 = load ptr, ptr %4, align 8, !tbaa !40
  %6 = getelementptr inbounds nuw i8, ptr %2, i64 208
  %7 = load double, ptr %6, align 8, !tbaa !41
  %8 = tail call double @sin(double noundef %1) #6, !tbaa !45
  %9 = fmul double %7, %8
  %10 = getelementptr inbounds nuw i8, ptr %5, i64 8
  %11 = load double, ptr %10, align 8, !tbaa !48
  %12 = tail call double @llvm.fmuladd.f64(double %1, double 5.000000e-01, double 0x3FE921FB54442D18)
  %13 = tail call double @tan(double noundef %12) #6, !tbaa !45
  %14 = tail call double @log(double noundef %13) #6, !tbaa !45
  %15 = getelementptr inbounds nuw i8, ptr %5, i64 16
  %16 = load double, ptr %15, align 8, !tbaa !42
  %17 = fadd double %9, 1.000000e+00
  %18 = fsub double 1.000000e+00, %9
  %19 = fdiv double %17, %18
  %20 = tail call double @log(double noundef %19) #6, !tbaa !45
  %21 = fneg double %16
  %22 = tail call double @llvm.fmuladd.f64(double %21, double %20, double %14)
  %23 = load double, ptr %5, align 8, !tbaa !52
  %24 = tail call double @llvm.fmuladd.f64(double %11, double %22, double %23)
  %25 = tail call double @exp(double noundef %24) #6, !tbaa !45
  %26 = tail call double @atan(double noundef %25) #6, !tbaa !45
  %27 = tail call double @llvm.fmuladd.f64(double %26, double 2.000000e+00, double 0xBFF921FB54442D18)
  %28 = fmul double %0, %11
  %29 = tail call double @cos(double noundef %27) #6, !tbaa !45
  %30 = load ptr, ptr %2, align 8, !tbaa !50
  %31 = getelementptr inbounds nuw i8, ptr %5, i64 32
  %32 = load double, ptr %31, align 8, !tbaa !51
  %33 = tail call double @sin(double noundef %27) #6, !tbaa !45
  %34 = getelementptr inbounds nuw i8, ptr %5, i64 40
  %35 = load double, ptr %34, align 8, !tbaa !49
  %36 = fmul double %29, %35
  %37 = tail call double @cos(double noundef %28) #6, !tbaa !45
  %38 = fneg double %37
  %39 = fmul double %36, %38
  %40 = tail call double @llvm.fmuladd.f64(double %32, double %33, double %39)
  %41 = tail call noundef double @_Z5aasinP6pj_ctxd(ptr noundef %30, double noundef %40)
  %42 = load ptr, ptr %2, align 8, !tbaa !50
  %43 = tail call double @sin(double noundef %28) #6, !tbaa !45
  %44 = fmul double %29, %43
  %45 = tail call double @cos(double noundef %41) #6, !tbaa !45
  %46 = fdiv double %44, %45
  %47 = tail call noundef double @_Z5aasinP6pj_ctxd(ptr noundef %42, double noundef %46)
  %48 = getelementptr inbounds nuw i8, ptr %5, i64 24
  %49 = load double, ptr %48, align 8, !tbaa !55
  %50 = fmul double %47, %49
  %51 = tail call double @llvm.fmuladd.f64(double %41, double 5.000000e-01, double 0x3FE921FB54442D18)
  %52 = tail call double @tan(double noundef %51) #6, !tbaa !45
  %53 = tail call double @log(double noundef %52) #6, !tbaa !45
  %54 = fmul double %49, %53
  %.fca.0.insert = insertvalue { double, double } poison, double %50, 0
  %.fca.1.insert = insertvalue { double, double } %.fca.0.insert, double %54, 1
  ret { double, double } %.fca.1.insert
}